; Function Attrs: nounwind sspstrong uwtable
define dso_local i64 @rb_enum_values_pack(i32 noundef %0, ptr noundef %1) local_unnamed_addr #0 {
  switch i32 %0, label %5 [
    i32 0, label %8
    i32 1, label %3
  ]

3:                                                ; preds = %2
  %4 = load i64, ptr %1, align 8, !tbaa !7
  br label %8

5:                                                ; preds = %2
  %6 = sext i32 %0 to i64
  %7 = tail call i64 @rb_ary_new_from_values(i64 noundef %6, ptr noundef %1) #14
  br label %8

8:                                                ; preds = %2, %5, %3
  %.0 = phi i64 [ %4, %3 ], [ %7, %5 ], [ 4, %2 ]
  ret i64 %.0
}